target datalayout = "e-m:e-p270:32:32-p271:32:32-p272:64:64-i64:64-i128:128-f80:128-n8:16:32:64-S128"
target triple = "x86_64-pc-linux-gnu"

@.str.3 = private unnamed_addr constant [61 x i8] c"Nm_ManDeleteIdName(): Entry with ID %d is not in the table.\0A\00", align 1

; Function Attrs: nounwind uwtable
define void @Nm_ManDeleteIdName(ptr noundef %0, i32 noundef %1) #0 {
  %3 = alloca ptr, align 8
  %4 = alloca i32, align 4
  %5 = alloca ptr, align 8
  %6 = alloca i32, align 4
  store ptr %0, ptr %3, align 8, !tbaa !7
  store i32 %1, ptr %4, align 4, !tbaa !3
  call void @llvm.lifetime.start.p0(i64 8, ptr %5) #9
  %7 = load ptr, ptr %3, align 8, !tbaa !7
  %8 = load i32, ptr %4, align 4, !tbaa !3
  %9 = call ptr @Nm_ManTableLookupId(ptr noundef %7, i32 noundef %8)
  store ptr %9, ptr %5, align 8, !tbaa !25
  %10 = load ptr, ptr %5, align 8, !tbaa !25
  %11 = icmp eq ptr %10, null
  br i1 %11, label %12, label %15

12:                                               ; preds = %2
  %13 = load i32, ptr %4, align 4, !tbaa !3
  %14 = call i32 (ptr, ...) @printf(ptr noundef @.str.3, i32 noundef %13)
  store i32 1, ptr %6, align 4
  br label %19

15:                                               ; preds = %2
  %16 = load ptr, ptr %3, align 8, !tbaa !7
  %17 = load i32, ptr %4, align 4, !tbaa !3
  %18 = call i32 @Nm_ManTableDelete(ptr noundef %16, i32 noundef %17)
  store i32 0, ptr %6, align 4
  br label %19

19:                                               ; preds = %15, %12
  call void @llvm.lifetime.end.p0(i64 8, ptr %5) #9
  %20 = load i32, ptr %6, align 4
  switch i32 %20, label %22 [
    i32 0, label %21
    i32 1, label %21
  ]

21:                                               ; preds = %19, %19
  ret void

22:                                               ; preds = %19
  unreachable
}