; Function Attrs: nounwind uwtable
define void @Nm_ManDeleteIdName(ptr noundef %0, i32 noundef %1) local_unnamed_addr #0 {
  %3 = tail call ptr @Nm_ManTableLookupId(ptr noundef %0, i32 noundef %1) #10
  %4 = icmp eq ptr %3, null
  br i1 %4, label %5, label %7

5:                                                ; preds = %2
  %6 = tail call i32 (ptr, ...) @printf(ptr noundef nonnull dereferenceable(1) @.str.3, i32 noundef %1)
  br label %9

7:                                                ; preds = %2
  %8 = tail call i32 @Nm_ManTableDelete(ptr noundef %0, i32 noundef %1) #10
  br label %9

9:                                                ; preds = %7, %5
  ret void
}